target datalayout = "e-m:e-p270:32:32-p271:32:32-p272:64:64-i64:64-i128:128-f80:128-n8:16:32:64-S128"
target triple = "x86_64-pc-linux-gnu"

%struct.Indeo3DecodeContext = type { ptr, %struct.HpelDSPContext, %struct.GetBitContext, i32, i32, ptr, ptr, ptr, i32, i16, i16, i32, i32, i16, i8, i8, ptr, ptr, ptr, i32, i32, i32, ptr, [3 x %struct.Plane] }
%struct.HpelDSPContext = type { [4 x [4 x ptr]], [4 x [4 x ptr]], [4 x [4 x ptr]], [4 x ptr] }
%struct.GetBitContext = type { ptr, ptr, i32, i32, i32 }
%struct.Plane = type { [2 x ptr], [2 x ptr], i32, i32, i64 }

; Function Attrs: cold nounwind optsize uwtable
define internal void @free_frame_buffers(ptr noundef %0) #0 {
  %2 = alloca ptr, align 8
  %3 = alloca i32, align 4
  store ptr %0, ptr %2, align 8, !tbaa !29
  call void @llvm.lifetime.start.p0(i64 4, ptr %3) #10
  %4 = load ptr, ptr %2, align 8, !tbaa !29
  %5 = getelementptr inbounds nuw %struct.Indeo3DecodeContext, ptr %4, i32 0, i32 10
  store i16 0, ptr %5, align 2, !tbaa !64
  %6 = load ptr, ptr %2, align 8, !tbaa !29
  %7 = getelementptr inbounds nuw %struct.Indeo3DecodeContext, ptr %6, i32 0, i32 9
  store i16 0, ptr %7, align 4, !tbaa !63
  store i32 0, ptr %3, align 4, !tbaa !49
  br label %8

8:                                                ; preds = %40, %1
  %9 = load i32, ptr %3, align 4, !tbaa !49
  %10 = icmp slt i32 %9, 3
  br i1 %10, label %11, label %43

11:                                               ; preds = %8
  %12 = load ptr, ptr %2, align 8, !tbaa !29
  %13 = getelementptr inbounds nuw %struct.Indeo3DecodeContext, ptr %12, i32 0, i32 23
  %14 = load i32, ptr %3, align 4, !tbaa !49
  %15 = sext i32 %14 to i64
  %16 = getelementptr inbounds [3 x %struct.Plane], ptr %13, i64 0, i64 %15
  %17 = getelementptr inbounds nuw %struct.Plane, ptr %16, i32 0, i32 0
  %18 = getelementptr inbounds [2 x ptr], ptr %17, i64 0, i64 0
  call void @av_freep(ptr noundef %18)
  %19 = load ptr, ptr %2, align 8, !tbaa !29
  %20 = getelementptr inbounds nuw %struct.Indeo3DecodeContext, ptr %19, i32 0, i32 23
  %21 = load i32, ptr %3, align 4, !tbaa !49
  %22 = sext i32 %21 to i64
  %23 = getelementptr inbounds [3 x %struct.Plane], ptr %20, i64 0, i64 %22
  %24 = getelementptr inbounds nuw %struct.Plane, ptr %23, i32 0, i32 0
  %25 = getelementptr inbounds [2 x ptr], ptr %24, i64 0, i64 1
  call void @av_freep(ptr noundef %25)
  %26 = load ptr, ptr %2, align 8, !tbaa !29
  %27 = getelementptr inbounds nuw %struct.Indeo3DecodeContext, ptr %26, i32 0, i32 23
  %28 = load i32, ptr %3, align 4, !tbaa !49
  %29 = sext i32 %28 to i64
  %30 = getelementptr inbounds [3 x %struct.Plane], ptr %27, i64 0, i64 %29
  %31 = getelementptr inbounds nuw %struct.Plane, ptr %30, i32 0, i32 1
  %32 = getelementptr inbounds [2 x ptr], ptr %31, i64 0, i64 1
  store ptr null, ptr %32, align 8, !tbaa !47
  %33 = load ptr, ptr %2, align 8, !tbaa !29
  %34 = getelementptr inbounds nuw %struct.Indeo3DecodeContext, ptr %33, i32 0, i32 23
  %35 = load i32, ptr %3, align 4, !tbaa !49
  %36 = sext i32 %35 to i64
  %37 = getelementptr inbounds [3 x %struct.Plane], ptr %34, i64 0, i64 %36
  %38 = getelementptr inbounds nuw %struct.Plane, ptr %37, i32 0, i32 1
  %39 = getelementptr inbounds [2 x ptr], ptr %38, i64 0, i64 0
  store ptr null, ptr %39, align 8, !tbaa !47
  br label %40

40:                                               ; preds = %11
  %41 = load i32, ptr %3, align 4, !tbaa !49
  %42 = add nsw i32 %41, 1
  store i32 %42, ptr %3, align 4, !tbaa !49
  br label %8, !llvm.loop !101

43:                                               ; preds = %8
  call void @llvm.lifetime.end.p0(i64 4, ptr %3) #10
  ret void
}