; Function Attrs: cold nounwind optsize uwtable
define internal fastcc void @free_frame_buffers(ptr noundef initializes((492, 496)) %0) unnamed_addr #0 {
  %2 = getelementptr inbounds nuw i8, ptr %0, i64 494
  store i16 0, ptr %2, align 2, !tbaa !46
  %3 = getelementptr inbounds nuw i8, ptr %0, i64 492
  store i16 0, ptr %3, align 4, !tbaa !45
  %4 = getelementptr inbounds nuw i8, ptr %0, i64 560
  br label %5

5:                                                ; preds = %1, %5
  %indvars.iv = phi i64 [ 0, %1 ], [ %indvars.iv.next, %5 ]
  %6 = getelementptr inbounds nuw [3 x %struct.Plane], ptr %4, i64 0, i64 %indvars.iv
  tail call void @av_freep(ptr noundef nonnull %6) #10
  %7 = getelementptr inbounds nuw i8, ptr %6, i64 8
  tail call void @av_freep(ptr noundef nonnull %7) #10
  %8 = getelementptr inbounds nuw i8, ptr %6, i64 16
  %indvars.iv.next = add nuw nsw i64 %indvars.iv, 1
  %exitcond.not = icmp eq i64 %indvars.iv.next, 3
  tail call void @llvm.memset.p0.i64(ptr noundef nonnull align 8 dereferenceable(16) %8, i8 0, i64 16, i1 false)
  br i1 %exitcond.not, label %9, label %5, !llvm.loop !88

9:                                                ; preds = %5
  ret void
}